target datalayout = "e-m:e-p270:32:32-p271:32:32-p272:64:64-i64:64-i128:128-f80:128-n8:16:32:64-S128"
target triple = "x86_64-pc-linux-gnu"

%struct.tdefl_output_buffer = type { i64, i64, ptr, i32 }

; Function Attrs: mustprogress uwtable
define ptr @tdefl_compress_mem_to_heap(ptr noundef %0, i64 noundef %1, ptr noundef %2, i32 noundef %3) #5 {
  %5 = alloca ptr, align 8
  %6 = alloca ptr, align 8
  %7 = alloca i64, align 8
  %8 = alloca ptr, align 8
  %9 = alloca i32, align 4
  %10 = alloca %struct.tdefl_output_buffer, align 8
  store ptr %0, ptr %6, align 8
  store i64 %1, ptr %7, align 8
  store ptr %2, ptr %8, align 8
  store i32 %3, ptr %9, align 4
  call void @llvm.memset.p0.i64(ptr align 8 %10, i8 0, i64 32, i1 false)
  %11 = load ptr, ptr %8, align 8
  %12 = icmp ne ptr %11, null
  br i1 %12, label %14, label %13

13:                                               ; preds = %4
  store ptr null, ptr %5, align 8
  br label %30

14:                                               ; preds = %4
  %15 = load ptr, ptr %8, align 8
  store i64 0, ptr %15, align 8
  br label %16

16:                                               ; preds = %14
  %17 = getelementptr inbounds %struct.tdefl_output_buffer, ptr %10, i32 0, i32 3
  store i32 1, ptr %17, align 8
  %18 = load ptr, ptr %6, align 8
  %19 = load i64, ptr %7, align 8
  %20 = load i32, ptr %9, align 4
  %21 = call i32 @tdefl_compress_mem_to_output(ptr noundef %18, i64 noundef %19, ptr noundef @_ZL26tdefl_output_buffer_putterPKviPv, ptr noundef %10, i32 noundef %20)
  %22 = icmp ne i32 %21, 0
  br i1 %22, label %24, label %23

23:                                               ; preds = %16
  store ptr null, ptr %5, align 8
  br label %30

24:                                               ; preds = %16
  %25 = getelementptr inbounds %struct.tdefl_output_buffer, ptr %10, i32 0, i32 0
  %26 = load i64, ptr %25, align 8
  %27 = load ptr, ptr %8, align 8
  store i64 %26, ptr %27, align 8
  %28 = getelementptr inbounds %struct.tdefl_output_buffer, ptr %10, i32 0, i32 2
  %29 = load ptr, ptr %28, align 8
  store ptr %29, ptr %5, align 8
  br label %30

30:                                               ; preds = %24, %23, %13
  %31 = load ptr, ptr %5, align 8
  ret ptr %31
}