; Function Attrs: mustprogress uwtable
define ptr @tdefl_compress_mem_to_heap(ptr noundef %0, i64 noundef %1, ptr noundef writeonly %2, i32 noundef %3) local_unnamed_addr #9 {
  %5 = alloca %struct.tdefl_output_buffer, align 8
  call void @llvm.memset.p0.i64(ptr noundef nonnull align 8 dereferenceable(32) %5, i8 0, i64 32, i1 false)
  %.not = icmp eq ptr %2, null
  br i1 %.not, label %13, label %6

6:                                                ; preds = %4
  store i64 0, ptr %2, align 8
  %7 = getelementptr inbounds i8, ptr %5, i64 24
  store i32 1, ptr %7, align 8
  %8 = call i32 @tdefl_compress_mem_to_output(ptr noundef %0, i64 noundef %1, ptr noundef nonnull @_ZL26tdefl_output_buffer_putterPKviPv, ptr noundef nonnull %5, i32 noundef %3), !range !16
  %.not7 = icmp eq i32 %8, 0
  br i1 %.not7, label %13, label %9

9:                                                ; preds = %6
  %10 = load i64, ptr %5, align 8
  store i64 %10, ptr %2, align 8
  %11 = getelementptr inbounds i8, ptr %5, i64 16
  %12 = load ptr, ptr %11, align 8
  br label %13

13:                                               ; preds = %6, %4, %9
  %.0 = phi ptr [ %12, %9 ], [ null, %4 ], [ null, %6 ]
  ret ptr %.0
}